(dp0
S'rt'
p1
(dp2
sS'pumpdata'
p3
(dp4
S'1DIA'
p5
S'\x0201S26.59\x03'
p6
sS'0RAT'
p7
S'\x0200S900.0MH\x03'
p8
sS'0DIS'
p9
S'\x0200SI0.000W0.000ML\x03'
p10
sS'0DIR'
p11
S'\x0200SINF\x03'
p12
sS'1VOL'
p13
S'\x0201S0.500ML\x03'
p14
sS'1DIR'
p15
S'\x0201SINF\x03'
p16
sS'1DIS'
p17
S'\x0201SI0.000W0.000ML\x03'
p18
sS'1RAT'
p19
S'\x0201S900.0MH\x03'
p20
sS'0DIA'
p21
S'\x0200S26.59\x03'
p22
sS'0VOL'
p23
S'\x0200S0.500ML\x03'
p24
ssS'stim_log'
p25
(dp26
sS'trialdata'
p27
(dp28
I0
(dp29
S'onset'
p30
cnumpy.core.multiarray
scalar
p31
(cnumpy
dtype
p32
(S'f8'
p33
I0
I1
tp34
Rp35
(I3
S'<'
p36
NNNI-1
I-1
I0
tp37
bS'\x00\x00\x00\x00\x00\x00\x00\x00'
p38
tp39
Rp40
sS'dis'
p41
(lp42
S'\x0200SI0.000W0.000ML\x03'
p43
aS'\x0201SI0.500W0.000ML\x03'
p44
assI1
(dp45
g30
g31
(g35
S'\x00\x00\x00\x00\x00\x00$@'
p46
tp47
Rp48
sg41
(lp49
S'\x0200SI0.500W0.000ML\x03'
p50
aS'\x0201SI1.000W0.000ML\x03'
p51
assI2
(dp52
g30
g31
(g35
S'\x00\x00\x00\x00\x00\x004@'
p53
tp54
Rp55
sg41
(lp56
S'\x0200II1.484W0.000ML\x03'
p57
aS'\x0201SI1.000W0.000ML\x03'
p58
assI3
(dp59
g30
g31
(g35
S'\x00\x00\x00\x00\x00\x00>@'
p60
tp61
Rp62
sg41
(lp63
S'\x0200II2.489W0.000ML\x03'
p64
aS'\x0201SI1.000W0.000ML\x03'
p65
assI4
(dp66
g30
g31
(g35
S'\x00\x00\x00\x00\x00\x00D@'
p67
tp68
Rp69
sg41
(lp70
S'\x0200II3.486W0.000ML\x03'
p71
aS'\x0201SI1.000W0.000ML\x03'
p72
assI5
(dp73
g30
g31
(g35
S'\x00\x00\x00\x00\x00\x00I@'
p74
tp75
Rp76
sg41
(lp77
S'\x0200II4.486W0.000ML\x03'
p78
aS'\x0201SI1.000W0.000ML\x03'
p79
assI6
(dp80
g30
g31
(g35
S'\x00\x00\x00\x00\x00\x00N@'
p81
tp82
Rp83
sg41
(lp84
S'\x0200II5.486W0.000ML\x03'
p85
aS'\x0201SI1.000W0.000ML\x03'
p86
assI7
(dp87
g30
g31
(g35
S'\x00\x00\x00\x00\x00\x80Q@'
p88
tp89
Rp90
sg41
(lp91
S'\x0200SI6.001W0.000ML\x03'
p92
aS'\x0201SI1.500W0.000ML\x03'
p93
assI8
(dp94
g30
g31
(g35
S'\x00\x00\x00\x00\x00\x00T@'
p95
tp96
Rp97
sg41
(lp98
S'\x0200SI6.501W0.000ML\x03'
p99
aS'\x0201SI2.000W0.000ML\x03'
p100
assI9
(dp101
g30
g31
(g35
S'\x00\x00\x00\x00\x00\x80V@'
p102
tp103
Rp104
sg41
(lp105
S'\x0200SI7.002W0.000ML\x03'
p106
aS'\x0201SI2.500W0.000ML\x03'
p107
assI10
(dp108
g30
g31
(g35
S'\x00\x00\x00\x00\x00\x00Y@'
p109
tp110
Rp111
sg41
(lp112
S'\x0200SI7.502W0.000ML\x03'
p113
aS'\x0201SI3.001W0.000ML\x03'
p114
assI11
(dp115
g30
g31
(g35
S'\x00\x00\x00\x00\x00\x80[@'
p116
tp117
Rp118
sg41
(lp119
S'\x0200SI8.002W0.000ML\x03'
p120
aS'\x0201SI3.501W0.000ML\x03'
p121
assI12
(dp122
g30
g31
(g35
S'\x00\x00\x00\x00\x00\x00^@'
p123
tp124
Rp125
sg41
(lp126
S'\x0200II8.990W0.000ML\x03'
p127
aS'\x0201SI3.501W0.000ML\x03'
p128
assI13
(dp129
g30
g31
(g35
S'\x00\x00\x00\x00\x00@`@'
p130
tp131
Rp132
sg41
(lp133
S'\x0200II9.988W0.000ML\x03'
p134
aS'\x0201SI3.501W0.000ML\x03'
p135
assI14
(dp136
g30
g31
(g35
S'\x00\x00\x00\x00\x00\x80a@'
p137
tp138
Rp139
sg41
(lp140
S'\x0200SI10.50W0.000ML\x03'
p141
aS'\x0201SI4.001W0.000ML\x03'
p142
assI15
(dp143
g30
g31
(g35
S'\x00\x00\x00\x00\x00\xc0b@'
p144
tp145
Rp146
sg41
(lp147
S'\x0200II11.49W0.000ML\x03'
p148
aS'\x0201SI4.001W0.000ML\x03'
p149
assI16
(dp150
g30
g31
(g35
S'\x00\x00\x00\x00\x00\x00d@'
p151
tp152
Rp153
sg41
(lp154
S'\x0200SI12.00W0.000ML\x03'
p155
aS'\x0201SI4.501W0.000ML\x03'
p156
assI17
(dp157
g30
g31
(g35
S'\x00\x00\x00\x00\x00@e@'
p158
tp159
Rp160
sg41
(lp161
S'\x0200II12.98W0.000ML\x03'
p162
aS'\x0201SI4.501W0.000ML\x03'
p163
assI18
(dp164
g30
g31
(g35
S'\x00\x00\x00\x00\x00\x80f@'
p165
tp166
Rp167
sg41
(lp168
S'\x0200SI13.50W0.000ML\x03'
p169
aS'\x0201SI5.001W0.000ML\x03'
p170
assI19
(dp171
g30
g31
(g35
S'\x00\x00\x00\x00\x00\xc0g@'
p172
tp173
Rp174
sg41
(lp175
S'\x0200II14.48W0.000ML\x03'
p176
aS'\x0201SI5.001W0.000ML\x03'
p177
assI20
(dp178
g30
g31
(g35
S'\x00\x00\x00\x00\x00\x00i@'
p179
tp180
Rp181
sg41
(lp182
S'\x0200II15.49W0.000ML\x03'
p183
aS'\x0201SI5.001W0.000ML\x03'
p184
assI21
(dp185
g30
g31
(g35
S'\x00\x00\x00\x00\x00@j@'
p186
tp187
Rp188
sg41
(lp189
S''
p190
ag190
assI22
(dp191
g30
g31
(g35
S'\x00\x00\x00\x00\x00\x80k@'
p192
tp193
Rp194
sg41
(lp195
g190
ag190
assI23
(dp196
g30
g31
(g35
S'\x00\x00\x00\x00\x00\xc0l@'
p197
tp198
Rp199
sg41
(lp200
g190
ag190
asssS'simulated_response'
p201
I00
sS'script'
p202
(lp203
S'"""\n'
p204
aS'deliver juice\n'
p205
aS'"""\n'
p206
aS'#####to run, in shell window <execfile("liquid2.py"), it initially doesn\'t work run via gui, then close and run cmdline#####\n'
p207
aS'import psychopy.app\n'
p208
aS'import numpy as N\n'
p209
aS'import sys,os,pickle\n'
p210
aS'################################################\n'
p211
aS"sys.path.insert(0, '/Users/imagining/Downloads/pyserial-2.6')\n"
p212
aS"#####THIS IS IMPORTANT DON'T MESS WITH IT#######\n"
p213
aS"sys.path.append('/Users/imagining/Desktop/liquid_working')\n"
p214
aS'import cv2\n'
p215
aS'import syringe_pump\n'
p216
aS'from psychopy import visual, core, event, logging, data, misc, sound\n'
p217
aS'\n'
p218
aS'import socket\n'
p219
aS'from socket import gethostname\n'
p220
aS'import inspect\n'
p221
aS"sys.path.append('/Users/imagining/Desktop/liquid/psychtask')\n"
p222
ag218
aS'import exptutils\n'
p223
aS'from exptutils import *\n'
p224
ag218
aS'import datetime\n'
p225
ag218
aS'def store_scriptfile():\n'
p226
aS'    scriptfile= inspect.getfile(inspect.currentframe())# save a copy of the script in the data file\n'
p227
aS'    f=open(scriptfile)\n'
p228
aS'    script=f.readlines()\n'
p229
aS'    f.close()\n'
p230
aS'    return script\n'
p231
ag218
aS'def check_for_quit(subdata,win):\n'
p232
aS'    k=event.getKeys()\n'
p233
aS"    print 'checking for quit key %s'%subdata['quit_key']\n"
p234
aS"    print 'found:',k\n"
p235
aS"    if k.count(subdata['quit_key']) >0:# if subdata['quit_key'] is pressed...\n"
p236
aS"        print 'quit key pressed'\n"
p237
aS'        return True\n'
p238
aS'    else:\n'
p239
aS'        return False\n'
p240
ag218
aS'def wait_for_trigger():\n'
p241
aS'    event.clearEvents()\n'
p242
aS"    if subdata['simulated_response']:\n"
p243
aS'        msg="SIMULATION MODE"\n'
p244
aS'    else:\n'
p245
aS"        msg=''\n"
p246
aS"    message=visual.TextStim(win, text='%s Waiting for start key (or press %s)\\nBe very still!'%(msg,subdata['start_key']),\n"
p247
aS"    font='BiauKai', height=1,color=u'white', colorSpace=u'rgb', opacity=1,depth=0.0,\n"
p248
aS"    alignHoriz='center',wrapWidth=50)\n"
p249
aS'    message.setAutoDraw(True) #automatically draw every frame\n'
p250
aS'    win.flip()\n'
p251
aS'    start=False\n'
p252
aS'    while start==False:\n'
p253
aS'        k=event.waitKeys()\n'
p254
aS"        if k.count(subdata['start_key'])>0:#as soon as subdata['start_key'] is pressed...\n"
p255
aS'            start=True\n'
p256
aS"            message.setText('')#this clears the screen\n"
p257
aS'            win.flip()\n'
p258
aS"        if k.count(subdata['quit_key']) >0:# if subdata['quit_key'] is pressed...\n"
p259
aS'            exptutils.shut_down_cleanly(subdata,win)\n'
p260
aS'            return False\n'
p261
aS'    return True\n'
p262
ag218
aS'subdata={}\n'
p263
aS"#subdata['subcode']='test'\n"
p264
aS"subdata['subcode']=raw_input('subject id: ')\n"
p265
ag218
aS'# initialize subdata dictionary to store info about the study\n'
p266
aS"subdata['completed']=0\n"
p267
aS"subdata['cwd']=os.getcwd()\n"
p268
aS"subdata['hostname']=socket.gethostname()\n"
p269
aS'clock=core.Clock()\n'
p270
aS'datestamp=datetime.datetime.now().strftime("%Y-%m-%d-%H_%M_%S")\n'
p271
aS"subdata['datestamp']=datestamp\n"
p272
aS"subdata['expt_title']='tampico_probabilistic'\n"
p273
aS"subdata['script']=store_scriptfile()\n"
p274
aS"subdata['response']={}\n"
p275
aS"subdata['score']={}\n"
p276
aS"subdata['rt']={}\n"
p277
aS"subdata['stim_onset_time']={}\n"
p278
aS"subdata['stim_log']={}\n"
p279
aS"subdata['is_this_SS_trial']={}\n"
p280
aS"subdata['SS']={}\n"
p281
aS"subdata['broke_on_trial']={}\n"
p282
ag218
aS"subdata['start_key']='5'\n"
p283
aS"subdata['quit_key']='q'\n"
p284
ag218
aS"subdata['simulated_response']=False\n"
p285
ag218
aS"dataFileName='Output/%s_%s_subdata.log'%(subdata['subcode'],subdata['datestamp'])\n"
p286
aS'logging.console.setLevel(logging.INFO)\n'
p287
aS'logfile=logging.LogFile(dataFileName,level=logging.DATA)\n'
p288
ag218
ag218
aS'try:\n'
p289
aS"    print 'initializing serial device:'\n"
p290
aS"    dev=syringe_pump.SyringePump('/dev/tty.usbserial')\n"
p291
aS'    print dev\n'
p292
aS"    print 'using serial device: ', dev\n"
p293
aS'    if not dev.isOpen():\n'
p294
aS"        raise Exception('noPump')\n"
p295
aS'    hasPump=True\n'
p296
aS'except:\n'
p297
aS'    hasPump=False\n'
p298
ag218
ag218
aS'#from new_era import PumpInterface\n'
p299
aS"#pi = PumpInterface(port='/dev/tty.usbserial')\n"
p300
ag218
aS'# deliver 0.5 ml over 5 seconds\n'
p301
aS'# equates to\n'
p302
ag218
aS'diameter=26.59\n'
p303
aS'mls_to_deliver=0.5\n'
p304
aS'delivery_time=2.0\n'
p305
aS'cue_time=2.0\n'
p306
aS'wait_time=2.0\n'
p307
aS'rinse_time=2.0\n'
p308
aS'swallow_time=2.0\n'
p309
aS'trial_length=cue_time+delivery_time+wait_time+rinse_time+swallow_time\n'
p310
ag218
aS'rate = mls_to_deliver*(3600.0/delivery_time)  # mls/hour\n'
p311
ag218
aS"trialcond=N.zeros(24).astype('int')\n"
p312
ag218
aS'trialcond[0:8]=0     # water cue, water delivery\n'
p313
aS'trialcond[8:12]=1    # water cue, juice delivery\n'
p314
aS'trialcond[12:20]=2   # juice cue, juice delivery\n'
p315
aS'trialcond[20:24]=3   # juice cue, water delivery\n'
p316
aS"stim_images=['bottled_water.jpg','bottled_water.jpg','tampico.jpg','tampico.jpg']\n"
p317
aS'ntrials=len(trialcond)\n'
p318
aS'pump=N.zeros(ntrials)\n'
p319
ag218
aS'N.random.shuffle(trialcond)\n'
p320
ag218
aS'# pump zero is neutral, pump 1 is juice\n'
p321
ag218
aS'pump[trialcond==1]=1\n'
p322
aS'pump[trialcond==2]=1\n'
p323
ag218
ag218
ag218
aS'onsets=N.arange(0,ntrials*trial_length,step=trial_length)\n'
p324
ag218
ag218
aS'# clear infusion measurements\n'
p325
aS'if hasPump:\n'
p326
aS"    commands_to_send=['0PHN01','1PHN01','0CLDINF','1CLDINF','0DIRINF','1DIRINF','0RAT%0.1fMH'%rate,'1RAT%0.1fMH'%rate,'0VOL%0.1f'%mls_to_deliver,'1VOL%0.1f'%mls_to_deliver,'0DIA%0.1fMH'%diameter,'1DIA%0.1fMH'%diameter]\n"
p327
aS"    subdata['pumpver']=dev.sendCmd('VER')\n"
p328
ag218
aS'    dev.setBaudrate(9600)\n'
p329
ag218
aS'    for cmd in commands_to_send:\n'
p330
aS"        print 'sending: ',cmd\n"
p331
aS'        dev.sendCmd(cmd)\n'
p332
aS'        core.wait(0.1)\n'
p333
ag218
aS"    subdata['pumpdata']={}\n"
p334
aS'    for p in [0,1]:\n'
p335
aS"        for cmd in ['DIS','DIR','RAT','VOL','DIA']:\n"
p336
aS"            fullcmd='%d%s'%(p,cmd)\n"
p337
aS"            subdata['pumpdata'][fullcmd]=dev.sendCmd(fullcmd)\n"
p338
aS'            core.wait(0.1)\n'
p339
ag218
aS"    print subdata['pumpdata']\n"
p340
ag218
aS'# setup screen\n'
p341
ag218
aS'fullscr=False\n'
p342
ag218
aS"win = visual.Window([800,600],allowGUI=True, fullscr=fullscr, monitor='testMonitor', units='deg')\n"
p343
aS"visual_stim=visual.ImageStim(win, image=N.zeros((300,300)), size=(0.75,0.75),units='height')\n"
p344
ag218
aS'event.clearEvents()\n'
p345
aS'wt=wait_for_trigger()\n'
p346
aS'if not wt:\n'
p347
aS"    print 'quit button pressed!'\n"
p348
aS'    sys.exit()\n'
p349
aS'else:\n'
p350
aS'    print "quit status:",wt\n'
p351
aS'    \n'
p352
aS"message=visual.TextStim(win, text='')\n"
p353
ag218
aS"subdata['trialdata']={}\n"
p354
aS'clock.reset()\n'
p355
aS'event.clearEvents()\n'
p356
ag218
aS'for trial in range(ntrials):\n'
p357
aS'    if check_for_quit(subdata,win):\n'
p358
aS'        exptutils.shut_down_cleanly(subdata,win)\n'
p359
aS'        sys.exit()\n'
p360
ag218
aS'    trialdata={}\n'
p361
aS"    print 'trial %d'%trial\n"
p362
aS"    trialdata['onset']=onsets[trial]\n"
p363
aS"    print 'condition %d'%trialcond[trial]\n"
p364
aS'    logging.log(logging.DATA,"Condition: %d"%trialcond[trial])\n'
p365
aS"    print 'showing image: %s'%stim_images[trialcond[trial]]\n"
p366
aS'    visual_stim.setImage(stim_images[trialcond[trial]])\n'
p367
aS'    visual_stim.draw()\n'
p368
aS'    logging.log(logging.DATA, "image=%s"%stim_images[trialcond[trial]])\n'
p369
aS"    while clock.getTime()<trialdata['onset']:#wait until the specified onset time to display image_file\n"
p370
aS'        if check_for_quit(subdata,win):\n'
p371
aS'            exptutils.shut_down_cleanly(subdata,win)\n'
p372
aS'            sys.exit()\n'
p373
aS'    win.flip()\n'
p374
ag218
aS"    while clock.getTime()<(trialdata['onset']+cue_time):#show the image\n"
p375
aS'        pass\n'
p376
ag218
aS'    if hasPump:\n'
p377
aS"        print 'injecting via pump at address %d'%pump[trial]\n"
p378
aS'        logging.log(logging.DATA,"injecting via pump at address %d"%pump[trial])\n'
p379
ag218
aS"        dev.sendCmd('%dRUN'%pump[trial])\n"
p380
aS'    else:\n'
p381
aS"        print 'no pump: should be injecting via pump at address %d'%pump[trial]\n"
p382
ag218
aS"    while clock.getTime()<(trialdata['onset']+cue_time+delivery_time):#wait until liquid is delivered\n"
p383
aS'        pass\n'
p384
aS"    message=visual.TextStim(win, text='')\n"
p385
aS'    message.draw()\n'
p386
aS'    win.flip()\n'
p387
aS'    if hasPump:\n'
p388
aS"        trialdata['dis']=[dev.sendCmd('0DIS'),dev.sendCmd('1DIS')]\n"
p389
ag218
ag218
aS"    while clock.getTime()<(trialdata['onset']+cue_time+delivery_time+wait_time):\n"
p390
aS'        pass\n'
p391
ag218
aS'    if hasPump:\n'
p392
aS"        print 'injecting rinse via pump at address %d'%0\n"
p393
aS"        dev.sendCmd('%dRUN'%0)\n"
p394
aS'    else:\n'
p395
aS"        print 'no pump: should be injecting rinse via pump at address %d'%pump[trial]\n"
p396
ag218
aS"    while clock.getTime()<(trialdata['onset']+cue_time+delivery_time+wait_time+rinse_time):\n"
p397
aS'        pass\n'
p398
ag218
aS"    message=visual.TextStim(win, text='swallow')\n"
p399
aS'    message.draw()\n'
p400
aS'    win.flip()\n'
p401
ag218
aS"    while clock.getTime()<(trialdata['onset']+cue_time+delivery_time+wait_time+rinse_time+swallow_time):\n"
p402
aS'        pass\n'
p403
aS"    message=visual.TextStim(win, text='')\n"
p404
aS'    message.draw()\n'
p405
aS'    win.flip()\n'
p406
ag218
aS"    while clock.getTime()<(trialdata['onset']+trial_length):\n"
p407
aS'        pass\n'
p408
ag218
aS"    subdata['trialdata'][trial]=trialdata           \n"
p409
ag218
aS'win.close()\n'
p410
ag218
aS"#print dev.sendCmd('VER')\n"
p411
aS"f=open('Output/liquid_subdata_%s.pkl'%datestamp,'wb')\n"
p412
aS'pickle.dump(subdata,f)\n'
p413
aS'f.close()\n'
p414
asS'SS'
p415
(dp416
sS'pumpver'
p417
g190
sS'completed'
p418
I0
sS'hostname'
p419
S'wireless-10-145-139-234.public.utexas.edu'
p420
sS'quit_key'
p421
S'q'
p422
sS'stim_onset_time'
p423
(dp424
sS'response'
p425
(dp426
sS'is_this_SS_trial'
p427
(dp428
sS'subcode'
p429
S'sb_00100'
p430
sS'score'
p431
(dp432
sS'broke_on_trial'
p433
(dp434
sS'datestamp'
p435
S'2015-09-19-09_39_28'
p436
sS'start_key'
p437
S'5'
p438
sS'cwd'
p439
S'/Users/imagining/Desktop/liquid_working'
p440
sS'expt_title'
p441
S'tampico_probabilistic'
p442
s.